target datalayout = "e-m:e-p270:32:32-p271:32:32-p272:64:64-i64:64-i128:128-f80:128-n8:16:32:64-S128"
target triple = "x86_64-pc-linux-gnu"

%struct.Curl_cfilter = type { ptr, ptr, ptr, ptr, i32, i8 }
%struct.curltime = type { i64, i32 }
%struct.cf_hc_ctx = type { i32, ptr, %struct.curltime, i32, %struct.cf_hc_baller, %struct.cf_hc_baller, i32, i32 }
%struct.cf_hc_baller = type { ptr, ptr, i32, %struct.curltime, i32, i8 }

; Function Attrs: nounwind uwtable
define internal i32 @cf_hc_baller_cntrl(ptr noundef %0, ptr noundef %1, i32 noundef %2, i32 noundef %3, ptr noundef %4) #0 {
  %6 = alloca i32, align 4
  %7 = alloca ptr, align 8
  %8 = alloca ptr, align 8
  %9 = alloca i32, align 4
  %10 = alloca i32, align 4
  %11 = alloca ptr, align 8
  store ptr %0, ptr %7, align 8, !tbaa !119
  store ptr %1, ptr %8, align 8, !tbaa !9
  store i32 %2, ptr %9, align 4, !tbaa !95
  store i32 %3, ptr %10, align 4, !tbaa !95
  store ptr %4, ptr %11, align 8, !tbaa !90
  %12 = load ptr, ptr %7, align 8, !tbaa !119
  %13 = getelementptr inbounds nuw %struct.cf_hc_baller, ptr %12, i32 0, i32 1
  %14 = load ptr, ptr %13, align 8, !tbaa !121
  %15 = icmp ne ptr %14, null
  br i1 %15, label %16, label %30

16:                                               ; preds = %5
  %17 = load ptr, ptr %7, align 8, !tbaa !119
  %18 = getelementptr inbounds nuw %struct.cf_hc_baller, ptr %17, i32 0, i32 2
  %19 = load i32, ptr %18, align 8, !tbaa !123
  %20 = icmp ne i32 %19, 0
  br i1 %20, label %30, label %21

21:                                               ; preds = %16
  %22 = load ptr, ptr %7, align 8, !tbaa !119
  %23 = getelementptr inbounds nuw %struct.cf_hc_baller, ptr %22, i32 0, i32 1
  %24 = load ptr, ptr %23, align 8, !tbaa !121
  %25 = load ptr, ptr %8, align 8, !tbaa !9
  %26 = load i32, ptr %9, align 4, !tbaa !95
  %27 = load i32, ptr %10, align 4, !tbaa !95
  %28 = load ptr, ptr %11, align 8, !tbaa !90
  %29 = call i32 @Curl_conn_cf_cntrl(ptr noundef %24, ptr noundef %25, i1 noundef zeroext false, i32 noundef %26, i32 noundef %27, ptr noundef %28)
  store i32 %29, ptr %6, align 4
  br label %31

30:                                               ; preds = %16, %5
  store i32 0, ptr %6, align 4
  br label %31

31:                                               ; preds = %30, %21
  %32 = load i32, ptr %6, align 4
  ret i32 %32
}

; Function Attrs: nounwind uwtable
define internal i32 @cf_hc_cntrl(ptr noundef %0, ptr noundef %1, i32 noundef %2, i32 noundef %3, ptr noundef %4) #0 {
  %6 = alloca ptr, align 8
  %7 = alloca ptr, align 8
  %8 = alloca i32, align 4
  %9 = alloca i32, align 4
  %10 = alloca ptr, align 8
  %11 = alloca ptr, align 8
  %12 = alloca i32, align 4
  store ptr %0, ptr %6, align 8, !tbaa !4
  store ptr %1, ptr %7, align 8, !tbaa !9
  store i32 %2, ptr %8, align 4, !tbaa !95
  store i32 %3, ptr %9, align 4, !tbaa !95
  store ptr %4, ptr %10, align 8, !tbaa !90
  call void @llvm.lifetime.start.p0(i64 8, ptr %11) #5
  %13 = load ptr, ptr %6, align 8, !tbaa !4
  %14 = getelementptr inbounds nuw %struct.Curl_cfilter, ptr %13, i32 0, i32 2
  %15 = load ptr, ptr %14, align 8, !tbaa !11
  store ptr %15, ptr %11, align 8, !tbaa !16
  call void @llvm.lifetime.start.p0(i64 4, ptr %12) #5
  store i32 0, ptr %12, align 4, !tbaa !95
  %16 = load ptr, ptr %6, align 8, !tbaa !4
  %17 = getelementptr inbounds nuw %struct.Curl_cfilter, ptr %16, i32 0, i32 5
  %18 = load i8, ptr %17, align 4
  %19 = and i8 %18, 1
  %20 = zext i8 %19 to i32
  %21 = icmp ne i32 %20, 0
  br i1 %21, label %48, label %22

22:                                               ; preds = %5
  %23 = load ptr, ptr %11, align 8, !tbaa !16
  %24 = getelementptr inbounds nuw %struct.cf_hc_ctx, ptr %23, i32 0, i32 4
  %25 = load ptr, ptr %7, align 8, !tbaa !9
  %26 = load i32, ptr %8, align 4, !tbaa !95
  %27 = load i32, ptr %9, align 4, !tbaa !95
  %28 = load ptr, ptr %10, align 8, !tbaa !90
  %29 = call i32 @cf_hc_baller_cntrl(ptr noundef %24, ptr noundef %25, i32 noundef %26, i32 noundef %27, ptr noundef %28)
  store i32 %29, ptr %12, align 4, !tbaa !95
  %30 = load i32, ptr %12, align 4, !tbaa !95
  %31 = icmp ne i32 %30, 0
  br i1 %31, label %32, label %35

32:                                               ; preds = %22
  %33 = load i32, ptr %12, align 4, !tbaa !95
  %34 = icmp eq i32 %33, 81
  br i1 %34, label %35, label %43

35:                                               ; preds = %32, %22
  %36 = load ptr, ptr %11, align 8, !tbaa !16
  %37 = getelementptr inbounds nuw %struct.cf_hc_ctx, ptr %36, i32 0, i32 5
  %38 = load ptr, ptr %7, align 8, !tbaa !9
  %39 = load i32, ptr %8, align 4, !tbaa !95
  %40 = load i32, ptr %9, align 4, !tbaa !95
  %41 = load ptr, ptr %10, align 8, !tbaa !90
  %42 = call i32 @cf_hc_baller_cntrl(ptr noundef %37, ptr noundef %38, i32 noundef %39, i32 noundef %40, ptr noundef %41)
  store i32 %42, ptr %12, align 4, !tbaa !95
  br label %43

43:                                               ; preds = %35, %32
  %44 = load i32, ptr %12, align 4, !tbaa !95
  %45 = icmp eq i32 %44, 81
  br i1 %45, label %46, label %47

46:                                               ; preds = %43
  store i32 0, ptr %12, align 4, !tbaa !95
  br label %47

47:                                               ; preds = %46, %43
  br label %48

48:                                               ; preds = %47, %5
  %49 = load i32, ptr %12, align 4, !tbaa !95
  call void @llvm.lifetime.end.p0(i64 4, ptr %12) #5
  call void @llvm.lifetime.end.p0(i64 8, ptr %11) #5
  ret i32 %49
}