; Function Attrs: nounwind uwtable
define internal range(i32 82, 81) i32 @cf_hc_cntrl(ptr noundef readonly captures(none) %0, ptr noundef %1, i32 noundef %2, i32 noundef %3, ptr noundef %4) #0 {
  %6 = getelementptr inbounds nuw i8, ptr %0, i64 16
  %7 = load ptr, ptr %6, align 8, !tbaa !4
  %8 = getelementptr inbounds nuw i8, ptr %0, i64 36
  %9 = load i8, ptr %8, align 4
  %10 = and i8 %9, 1
  %.not = icmp eq i8 %10, 0
  br i1 %.not, label %11, label %cf_hc_baller_cntrl.exit20.thread

11:                                               ; preds = %5
  %12 = getelementptr inbounds nuw i8, ptr %7, i64 48
  %13 = load ptr, ptr %12, align 8, !tbaa !86
  %.not.i = icmp eq ptr %13, null
  br i1 %.not.i, label %cf_hc_baller_cntrl.exit.thread, label %14

14:                                               ; preds = %11
  %15 = getelementptr inbounds nuw i8, ptr %7, i64 56
  %16 = load i32, ptr %15, align 8, !tbaa !88
  %.not8.i = icmp eq i32 %16, 0
  br i1 %.not8.i, label %cf_hc_baller_cntrl.exit, label %cf_hc_baller_cntrl.exit.thread

cf_hc_baller_cntrl.exit:                          ; preds = %14
  %17 = tail call i32 @Curl_conn_cf_cntrl(ptr noundef nonnull %13, ptr noundef %1, i1 noundef zeroext false, i32 noundef %2, i32 noundef %3, ptr noundef %4) #4
  switch i32 %17, label %cf_hc_baller_cntrl.exit20 [
    i32 81, label %cf_hc_baller_cntrl.exit.thread
    i32 0, label %cf_hc_baller_cntrl.exit.thread
  ]

cf_hc_baller_cntrl.exit.thread:                   ; preds = %11, %14, %cf_hc_baller_cntrl.exit, %cf_hc_baller_cntrl.exit
  %18 = getelementptr inbounds nuw i8, ptr %7, i64 96
  %19 = load ptr, ptr %18, align 8, !tbaa !86
  %.not.i17 = icmp eq ptr %19, null
  br i1 %.not.i17, label %cf_hc_baller_cntrl.exit20.thread, label %20

20:                                               ; preds = %cf_hc_baller_cntrl.exit.thread
  %21 = getelementptr inbounds nuw i8, ptr %7, i64 104
  %22 = load i32, ptr %21, align 8, !tbaa !88
  %.not8.i18 = icmp eq i32 %22, 0
  br i1 %.not8.i18, label %23, label %cf_hc_baller_cntrl.exit20.thread

23:                                               ; preds = %20
  %24 = tail call i32 @Curl_conn_cf_cntrl(ptr noundef nonnull %19, ptr noundef %1, i1 noundef zeroext false, i32 noundef %2, i32 noundef %3, ptr noundef %4) #4
  %25 = freeze i32 %24
  br label %cf_hc_baller_cntrl.exit20

cf_hc_baller_cntrl.exit20:                        ; preds = %23, %cf_hc_baller_cntrl.exit
  %.1 = phi i32 [ %17, %cf_hc_baller_cntrl.exit ], [ %25, %23 ]
  %26 = icmp eq i32 %.1, 81
  %spec.select = select i1 %26, i32 0, i32 %.1
  br label %cf_hc_baller_cntrl.exit20.thread

cf_hc_baller_cntrl.exit20.thread:                 ; preds = %cf_hc_baller_cntrl.exit20, %cf_hc_baller_cntrl.exit.thread, %20, %5
  %.0 = phi i32 [ 0, %5 ], [ 0, %20 ], [ 0, %cf_hc_baller_cntrl.exit.thread ], [ %spec.select, %cf_hc_baller_cntrl.exit20 ]
  ret i32 %.0
}